; Function Attrs: mustprogress uwtable
define void @_ZN7xgboost8MetaInfo5ClearEv(ptr noundef nonnull align 8 dereferenceable(233) initializes((0, 24)) %0) local_unnamed_addr #5 align 2 personality ptr @__gxx_personality_v0 {
  %2 = alloca %"class.xgboost::linalg::Tensor", align 8
  %3 = alloca %"class.xgboost::linalg::Tensor", align 8
  tail call void @llvm.memset.p0.i64(ptr noundef nonnull align 8 dereferenceable(24) %0, i8 0, i64 24, i1 false)
  call void @llvm.lifetime.start.p0(i64 32, ptr nonnull %2) #21
  call void @llvm.memset.p0.i64(ptr noundef nonnull align 8 dereferenceable(32) %2, i8 0, i64 32, i1 false)
  call void @_ZN7xgboost16HostDeviceVectorIfEC1EmfNS_9DeviceOrdE(ptr noundef nonnull align 8 dereferenceable(25) %2, i64 noundef 0, float noundef 0.000000e+00, i32 -65536)
  %4 = getelementptr inbounds nuw i8, ptr %2, i64 8
  call void @llvm.memset.p0.i64(ptr noundef nonnull align 8 dereferenceable(17) %4, i8 0, i64 17, i1 false)
  %5 = getelementptr inbounds nuw i8, ptr %0, i64 24
  %6 = invoke noundef nonnull align 8 dereferenceable(8) ptr @_ZN7xgboost16HostDeviceVectorIfEaSEOS1_(ptr noundef nonnull align 8 dereferenceable(25) %5, ptr noundef nonnull align 8 dereferenceable(25) %2)
          to label %7 unwind label %25

7:                                                ; preds = %1
  %8 = getelementptr inbounds nuw i8, ptr %0, i64 32
  call void @llvm.memcpy.p0.p0.i64(ptr noundef nonnull align 8 dereferenceable(17) %8, ptr noundef nonnull align 8 dereferenceable(17) %4, i64 17, i1 false)
  call void @_ZN7xgboost16HostDeviceVectorIfED1Ev(ptr noundef nonnull align 8 dereferenceable(25) %2) #21
  call void @llvm.lifetime.end.p0(i64 32, ptr nonnull %2) #21
  %9 = getelementptr inbounds nuw i8, ptr %0, i64 64
  %10 = load ptr, ptr %9, align 8, !tbaa !306
  %11 = getelementptr inbounds nuw i8, ptr %0, i64 72
  %12 = load ptr, ptr %11, align 8, !tbaa !308
  %.not.i.i = icmp eq ptr %12, %10
  br i1 %.not.i.i, label %_ZNSt6vectorIjSaIjEE5clearEv.exit, label %13

13:                                               ; preds = %7
  store ptr %10, ptr %11, align 8, !tbaa !308
  br label %_ZNSt6vectorIjSaIjEE5clearEv.exit

_ZNSt6vectorIjSaIjEE5clearEv.exit:                ; preds = %7, %13
  %14 = getelementptr inbounds nuw i8, ptr %0, i64 88
  %15 = call noundef nonnull align 8 dereferenceable(24) ptr @_ZN7xgboost16HostDeviceVectorIfE10HostVectorEv(ptr noundef nonnull align 8 dereferenceable(8) %14)
  %16 = load ptr, ptr %15, align 8, !tbaa !309
  %17 = getelementptr inbounds nuw i8, ptr %15, i64 8
  %18 = load ptr, ptr %17, align 8, !tbaa !311
  %.not.i.i4 = icmp eq ptr %18, %16
  br i1 %.not.i.i4, label %_ZNSt6vectorIfSaIfEE5clearEv.exit, label %19

19:                                               ; preds = %_ZNSt6vectorIjSaIjEE5clearEv.exit
  store ptr %16, ptr %17, align 8, !tbaa !311
  br label %_ZNSt6vectorIfSaIfEE5clearEv.exit

_ZNSt6vectorIfSaIfEE5clearEv.exit:                ; preds = %_ZNSt6vectorIjSaIjEE5clearEv.exit, %19
  call void @llvm.lifetime.start.p0(i64 32, ptr nonnull %3) #21
  call void @llvm.memset.p0.i64(ptr noundef nonnull align 8 dereferenceable(32) %3, i8 0, i64 32, i1 false)
  call void @_ZN7xgboost16HostDeviceVectorIfEC1EmfNS_9DeviceOrdE(ptr noundef nonnull align 8 dereferenceable(25) %3, i64 noundef 0, float noundef 0.000000e+00, i32 -65536)
  %20 = getelementptr inbounds nuw i8, ptr %3, i64 8
  call void @llvm.memset.p0.i64(ptr noundef nonnull align 8 dereferenceable(17) %20, i8 0, i64 17, i1 false)
  %21 = getelementptr inbounds nuw i8, ptr %0, i64 96
  %22 = invoke noundef nonnull align 8 dereferenceable(8) ptr @_ZN7xgboost16HostDeviceVectorIfEaSEOS1_(ptr noundef nonnull align 8 dereferenceable(25) %21, ptr noundef nonnull align 8 dereferenceable(25) %3)
          to label %23 unwind label %27

23:                                               ; preds = %_ZNSt6vectorIfSaIfEE5clearEv.exit
  %24 = getelementptr inbounds nuw i8, ptr %0, i64 104
  call void @llvm.memcpy.p0.p0.i64(ptr noundef nonnull align 8 dereferenceable(17) %24, ptr noundef nonnull align 8 dereferenceable(17) %20, i64 17, i1 false)
  call void @_ZN7xgboost16HostDeviceVectorIfED1Ev(ptr noundef nonnull align 8 dereferenceable(25) %3) #21
  call void @llvm.lifetime.end.p0(i64 32, ptr nonnull %3) #21
  ret void

25:                                               ; preds = %1
  %26 = landingpad { ptr, i32 }
          cleanup
  call void @_ZN7xgboost16HostDeviceVectorIfED1Ev(ptr noundef nonnull align 8 dereferenceable(25) %2) #21
  call void @llvm.lifetime.end.p0(i64 32, ptr nonnull %2) #21
  br label %29

27:                                               ; preds = %_ZNSt6vectorIfSaIfEE5clearEv.exit
  %28 = landingpad { ptr, i32 }
          cleanup
  call void @_ZN7xgboost16HostDeviceVectorIfED1Ev(ptr noundef nonnull align 8 dereferenceable(25) %3) #21
  call void @llvm.lifetime.end.p0(i64 32, ptr nonnull %3) #21
  br label %29

29:                                               ; preds = %27, %25
  %.pn = phi { ptr, i32 } [ %28, %27 ], [ %26, %25 ]
  resume { ptr, i32 } %.pn
}